; Function Attrs: mustprogress uwtable
define void @_ZN5faiss14IndexBinaryIVF10merge_fromERNS_11IndexBinaryEl(ptr noundef nonnull align 8 dereferenceable(232) %0, ptr noundef nonnull align 8 dereferenceable(32) %1, i64 noundef %2) unnamed_addr #1 align 2 {
  %4 = load ptr, ptr %0, align 8
  %5 = getelementptr inbounds i8, ptr %4, i64 104
  %6 = load ptr, ptr %5, align 8
  tail call void %6(ptr noundef nonnull align 8 dereferenceable(232) %0, ptr noundef nonnull align 8 dereferenceable(32) %1)
  %7 = getelementptr inbounds i8, ptr %0, i64 32
  %8 = load ptr, ptr %7, align 8
  %9 = getelementptr inbounds i8, ptr %1, i64 32
  %10 = load ptr, ptr %9, align 8
  tail call void @_ZN5faiss13InvertedLists10merge_fromEPS0_m(ptr noundef nonnull align 8 dereferenceable(25) %8, ptr noundef %10, i64 noundef %2)
  %11 = getelementptr inbounds i8, ptr %1, i64 16
  %12 = load i64, ptr %11, align 8
  %13 = getelementptr inbounds i8, ptr %0, i64 16
  %14 = load i64, ptr %13, align 8
  %15 = add nsw i64 %14, %12
  store i64 %15, ptr %13, align 8
  store i64 0, ptr %11, align 8
  ret void
}